target datalayout = "e-m:e-p270:32:32-p271:32:32-p272:64:64-i64:64-i128:128-f80:128-n8:16:32:64-S128"
target triple = "x86_64-pc-linux-gnu"

%struct.mbedtls_cipher_context_t = type { ptr, i32, i32, ptr, ptr, [16 x i8], i64, [16 x i8], i64, ptr, ptr }
%struct.psa_aead_operation_s = type { i32, i32, i16, i64, i64, i8, %union.psa_driver_aead_context_t }
%union.psa_driver_aead_context_t = type { %struct.mbedtls_psa_aead_operation_t }
%struct.mbedtls_psa_aead_operation_t = type { i32, i16, i8, i8, %union.anon.1 }
%union.anon.1 = type { %struct.mbedtls_gcm_context }
%struct.mbedtls_gcm_context = type { %struct.mbedtls_cipher_context_t, [16 x i64], [16 x i64], i64, i64, [16 x i8], [16 x i8], [16 x i8], i32 }

; Function Attrs: nounwind uwtable
define hidden i32 @psa_driver_wrapper_aead_update(ptr noundef %0, ptr noundef %1, i64 noundef %2, ptr noundef %3, i64 noundef %4, ptr noundef %5) #0 {
  %7 = alloca i32, align 4
  %8 = alloca ptr, align 8
  %9 = alloca ptr, align 8
  %10 = alloca i64, align 8
  %11 = alloca ptr, align 8
  %12 = alloca i64, align 8
  %13 = alloca ptr, align 8
  store ptr %0, ptr %8, align 8
  store ptr %1, ptr %9, align 8
  store i64 %2, ptr %10, align 8
  store ptr %3, ptr %11, align 8
  store i64 %4, ptr %12, align 8
  store ptr %5, ptr %13, align 8
  %14 = load ptr, ptr %8, align 8
  %15 = getelementptr inbounds %struct.psa_aead_operation_s, ptr %14, i32 0, i32 0
  %16 = load i32, ptr %15, align 8
  switch i32 %16, label %26 [
    i32 1, label %17
  ]

17:                                               ; preds = %6
  %18 = load ptr, ptr %8, align 8
  %19 = getelementptr inbounds %struct.psa_aead_operation_s, ptr %18, i32 0, i32 6
  %20 = load ptr, ptr %9, align 8
  %21 = load i64, ptr %10, align 8
  %22 = load ptr, ptr %11, align 8
  %23 = load i64, ptr %12, align 8
  %24 = load ptr, ptr %13, align 8
  %25 = call i32 @mbedtls_psa_aead_update(ptr noundef %19, ptr noundef %20, i64 noundef %21, ptr noundef %22, i64 noundef %23, ptr noundef %24)
  store i32 %25, ptr %7, align 4
  br label %27

26:                                               ; preds = %6
  store i32 -135, ptr %7, align 4
  br label %27

27:                                               ; preds = %26, %17
  %28 = load i32, ptr %7, align 4
  ret i32 %28
}